; Function Attrs: mustprogress nofree norecurse nosync nounwind memory(readwrite, inaccessiblemem: none) uwtable
define internal fastcc void @_ZN4ncnnL31padding_constant_pack8_int8_sseERKNS_3MatERS0_iiiil(ptr noundef nonnull readonly align 8 captures(none) dereferenceable(72) %0, ptr writeonly captures(none) %.0.val, i32 %.44.val, i32 noundef %1, i32 noundef %2, i32 noundef %3, i32 noundef %4, i64 noundef %5) unnamed_addr #16 {
  %7 = load ptr, ptr %0, align 8, !tbaa !16
  %8 = icmp sgt i32 %1, 0
  %9 = icmp sgt i32 %.44.val, 0
  %or.cond = select i1 %8, i1 %9, i1 false
  br i1 %or.cond, label %.preheader6.us, label %.preheader5

.preheader6.us:                                   ; preds = %6, %._crit_edge.us
  %.04110.us = phi i32 [ %13, %._crit_edge.us ], [ 0, %6 ]
  %.0429.us = phi ptr [ %11, %._crit_edge.us ], [ %.0.val, %6 ]
  br label %10

10:                                               ; preds = %.preheader6.us, %10
  %.0408.us = phi i32 [ 0, %.preheader6.us ], [ %12, %10 ]
  %.17.us = phi ptr [ %.0429.us, %.preheader6.us ], [ %11, %10 ]
  %11 = getelementptr inbounds nuw i8, ptr %.17.us, i64 8
  store i64 %5, ptr %.17.us, align 8, !tbaa !57
  %12 = add nuw nsw i32 %.0408.us, 1
  %exitcond.not = icmp eq i32 %12, %.44.val
  br i1 %exitcond.not, label %._crit_edge.us, label %10, !llvm.loop !210

._crit_edge.us:                                   ; preds = %10
  %13 = add nuw nsw i32 %.04110.us, 1
  %exitcond84.not = icmp eq i32 %13, %1
  br i1 %exitcond84.not, label %.preheader5, label %.preheader6.us, !llvm.loop !211

.preheader5:                                      ; preds = %._crit_edge.us, %6
  %.042.lcssa = phi ptr [ %.0.val, %6 ], [ %11, %._crit_edge.us ]
  %14 = getelementptr inbounds nuw i8, ptr %0, i64 48
  %15 = load i32, ptr %14, align 8, !tbaa !39
  %16 = icmp sgt i32 %15, 0
  br i1 %16, label %.preheader4.lr.ph, label %.preheader1

.preheader4.lr.ph:                                ; preds = %.preheader5
  %17 = icmp sgt i32 %3, 0
  %18 = getelementptr inbounds nuw i8, ptr %0, i64 44
  %19 = load i32, ptr %18, align 4, !tbaa !38
  %20 = icmp sgt i32 %19, 0
  %21 = icmp sgt i32 %4, 0
  br i1 %20, label %.preheader4.us, label %.preheader4.lr.ph.split

.preheader4.us:                                   ; preds = %.preheader4.lr.ph, %._crit_edge.us29
  %.03926.us = phi i32 [ %22, %._crit_edge.us29 ], [ 0, %.preheader4.lr.ph ]
  %.225.us = phi ptr [ %.5.lcssa.us, %._crit_edge.us29 ], [ %.042.lcssa, %.preheader4.lr.ph ]
  %.04324.us = phi ptr [ %25, %._crit_edge.us29 ], [ %7, %.preheader4.lr.ph ]
  br i1 %17, label %.lr.ph.us, label %.preheader3.us.preheader

.preheader3.us.preheader:                         ; preds = %.lr.ph.us, %.preheader4.us
  %.415.us.ph = phi ptr [ %.225.us, %.preheader4.us ], [ %29, %.lr.ph.us ]
  br label %.preheader3.us

._crit_edge.us29:                                 ; preds = %.lr.ph22.us, %..preheader2_crit_edge.us
  %.5.lcssa.us = phi ptr [ %27, %..preheader2_crit_edge.us ], [ %23, %.lr.ph22.us ]
  %22 = add nuw nsw i32 %.03926.us, 1
  %exitcond95.not = icmp eq i32 %22, %15
  br i1 %exitcond95.not, label %.preheader1, label %.preheader4.us, !llvm.loop !62

.lr.ph22.us:                                      ; preds = %..preheader2_crit_edge.us, %.lr.ph22.us
  %.03621.us = phi i32 [ %24, %.lr.ph22.us ], [ 0, %..preheader2_crit_edge.us ]
  %.520.us = phi ptr [ %23, %.lr.ph22.us ], [ %27, %..preheader2_crit_edge.us ]
  %23 = getelementptr inbounds nuw i8, ptr %.520.us, i64 8
  store i64 %5, ptr %.520.us, align 8, !tbaa !57
  %24 = add nuw nsw i32 %.03621.us, 1
  %exitcond94.not = icmp eq i32 %24, %4
  br i1 %exitcond94.not, label %._crit_edge.us29, label %.lr.ph22.us, !llvm.loop !61

.preheader3.us:                                   ; preds = %.preheader3.us.preheader, %.preheader3.us
  %.03716.us = phi i32 [ %28, %.preheader3.us ], [ 0, %.preheader3.us.preheader ]
  %.415.us = phi ptr [ %27, %.preheader3.us ], [ %.415.us.ph, %.preheader3.us.preheader ]
  %.14414.us = phi ptr [ %25, %.preheader3.us ], [ %.04324.us, %.preheader3.us.preheader ]
  %25 = getelementptr inbounds nuw i8, ptr %.14414.us, i64 8
  %26 = load i64, ptr %.14414.us, align 8, !tbaa !57
  %27 = getelementptr inbounds nuw i8, ptr %.415.us, i64 8
  store i64 %26, ptr %.415.us, align 8, !tbaa !57
  %28 = add nuw nsw i32 %.03716.us, 1
  %exitcond93.not = icmp eq i32 %28, %19
  br i1 %exitcond93.not, label %..preheader2_crit_edge.us, label %.preheader3.us, !llvm.loop !60

.lr.ph.us:                                        ; preds = %.preheader4.us, %.lr.ph.us
  %.03813.us = phi i32 [ %30, %.lr.ph.us ], [ 0, %.preheader4.us ]
  %.312.us = phi ptr [ %29, %.lr.ph.us ], [ %.225.us, %.preheader4.us ]
  %29 = getelementptr inbounds nuw i8, ptr %.312.us, i64 8
  store i64 %5, ptr %.312.us, align 8, !tbaa !57
  %30 = add nuw nsw i32 %.03813.us, 1
  %exitcond92.not = icmp eq i32 %30, %3
  br i1 %exitcond92.not, label %.preheader3.us.preheader, label %.lr.ph.us, !llvm.loop !58

..preheader2_crit_edge.us:                        ; preds = %.preheader3.us
  br i1 %21, label %.lr.ph22.us, label %._crit_edge.us29

.preheader4.lr.ph.split:                          ; preds = %.preheader4.lr.ph
  br i1 %17, label %.preheader4.lr.ph.split.split.us, label %.preheader4.lr.ph.split.split

.preheader4.lr.ph.split.split.us:                 ; preds = %.preheader4.lr.ph.split
  br i1 %21, label %.preheader4.us31.us, label %.preheader4.us31

.preheader4.us31.us:                              ; preds = %.preheader4.lr.ph.split.split.us, %._crit_edge.us45.us
  %.03926.us32.us = phi i32 [ %36, %._crit_edge.us45.us ], [ 0, %.preheader4.lr.ph.split.split.us ]
  %.225.us33.us = phi ptr [ %31, %._crit_edge.us45.us ], [ %.042.lcssa, %.preheader4.lr.ph.split.split.us ]
  br label %33

..preheader3_crit_edge.us42.us:                   ; preds = %33, %..preheader3_crit_edge.us42.us
  %.03621.us35.us = phi i32 [ %32, %..preheader3_crit_edge.us42.us ], [ 0, %33 ]
  %.520.us36.us = phi ptr [ %31, %..preheader3_crit_edge.us42.us ], [ %34, %33 ]
  %31 = getelementptr inbounds nuw i8, ptr %.520.us36.us, i64 8
  store i64 %5, ptr %.520.us36.us, align 8, !tbaa !57
  %32 = add nuw nsw i32 %.03621.us35.us, 1
  %exitcond90.not = icmp eq i32 %32, %4
  br i1 %exitcond90.not, label %._crit_edge.us45.us, label %..preheader3_crit_edge.us42.us, !llvm.loop !61

33:                                               ; preds = %33, %.preheader4.us31.us
  %.03813.us37.us = phi i32 [ 0, %.preheader4.us31.us ], [ %35, %33 ]
  %.312.us38.us = phi ptr [ %.225.us33.us, %.preheader4.us31.us ], [ %34, %33 ]
  %34 = getelementptr inbounds nuw i8, ptr %.312.us38.us, i64 8
  store i64 %5, ptr %.312.us38.us, align 8, !tbaa !57
  %35 = add nuw nsw i32 %.03813.us37.us, 1
  %exitcond89.not = icmp eq i32 %35, %3
  br i1 %exitcond89.not, label %..preheader3_crit_edge.us42.us, label %33, !llvm.loop !58

._crit_edge.us45.us:                              ; preds = %..preheader3_crit_edge.us42.us
  %36 = add nuw nsw i32 %.03926.us32.us, 1
  %exitcond91.not = icmp eq i32 %36, %15
  br i1 %exitcond91.not, label %.preheader1, label %.preheader4.us31.us, !llvm.loop !62

.preheader4.us31:                                 ; preds = %.preheader4.lr.ph.split.split.us, %..preheader3_crit_edge.us42
  %.03926.us32 = phi i32 [ %40, %..preheader3_crit_edge.us42 ], [ 0, %.preheader4.lr.ph.split.split.us ]
  %.225.us33 = phi ptr [ %38, %..preheader3_crit_edge.us42 ], [ %.042.lcssa, %.preheader4.lr.ph.split.split.us ]
  br label %37

37:                                               ; preds = %.preheader4.us31, %37
  %.03813.us37 = phi i32 [ 0, %.preheader4.us31 ], [ %39, %37 ]
  %.312.us38 = phi ptr [ %.225.us33, %.preheader4.us31 ], [ %38, %37 ]
  %38 = getelementptr inbounds nuw i8, ptr %.312.us38, i64 8
  store i64 %5, ptr %.312.us38, align 8, !tbaa !57
  %39 = add nuw nsw i32 %.03813.us37, 1
  %exitcond87.not = icmp eq i32 %39, %3
  br i1 %exitcond87.not, label %..preheader3_crit_edge.us42, label %37, !llvm.loop !58

..preheader3_crit_edge.us42:                      ; preds = %37
  %40 = add nuw nsw i32 %.03926.us32, 1
  %exitcond88.not = icmp eq i32 %40, %15
  br i1 %exitcond88.not, label %.preheader1, label %.preheader4.us31, !llvm.loop !62

.preheader4.lr.ph.split.split:                    ; preds = %.preheader4.lr.ph.split
  br i1 %21, label %.preheader4.us49, label %.preheader1

.preheader4.us49:                                 ; preds = %.preheader4.lr.ph.split.split, %._crit_edge.us56
  %.03926.us50 = phi i32 [ %44, %._crit_edge.us56 ], [ 0, %.preheader4.lr.ph.split.split ]
  %.225.us51 = phi ptr [ %42, %._crit_edge.us56 ], [ %.042.lcssa, %.preheader4.lr.ph.split.split ]
  br label %41

41:                                               ; preds = %.preheader4.us49, %41
  %.03621.us53 = phi i32 [ 0, %.preheader4.us49 ], [ %43, %41 ]
  %.520.us54 = phi ptr [ %.225.us51, %.preheader4.us49 ], [ %42, %41 ]
  %42 = getelementptr inbounds nuw i8, ptr %.520.us54, i64 8
  store i64 %5, ptr %.520.us54, align 8, !tbaa !57
  %43 = add nuw nsw i32 %.03621.us53, 1
  %exitcond85.not = icmp eq i32 %43, %4
  br i1 %exitcond85.not, label %._crit_edge.us56, label %41, !llvm.loop !61

._crit_edge.us56:                                 ; preds = %41
  %44 = add nuw nsw i32 %.03926.us50, 1
  %exitcond86.not = icmp eq i32 %44, %15
  br i1 %exitcond86.not, label %.preheader1, label %.preheader4.us49, !llvm.loop !62

.preheader1:                                      ; preds = %._crit_edge.us56, %..preheader3_crit_edge.us42, %._crit_edge.us45.us, %._crit_edge.us29, %.preheader4.lr.ph.split.split, %.preheader5
  %.2.lcssa = phi ptr [ %.042.lcssa, %.preheader5 ], [ %.042.lcssa, %.preheader4.lr.ph.split.split ], [ %.5.lcssa.us, %._crit_edge.us29 ], [ %31, %._crit_edge.us45.us ], [ %38, %..preheader3_crit_edge.us42 ], [ %42, %._crit_edge.us56 ]
  %45 = icmp sgt i32 %2, 0
  %46 = icmp sgt i32 %.44.val, 0
  %or.cond110 = select i1 %45, i1 %46, i1 false
  br i1 %or.cond110, label %.preheader.us, label %._crit_edge65

.preheader.us:                                    ; preds = %.preheader1, %._crit_edge.us67
  %.03564.us = phi i32 [ %50, %._crit_edge.us67 ], [ 0, %.preheader1 ]
  %.663.us = phi ptr [ %48, %._crit_edge.us67 ], [ %.2.lcssa, %.preheader1 ]
  br label %47

47:                                               ; preds = %.preheader.us, %47
  %.062.us = phi i32 [ 0, %.preheader.us ], [ %49, %47 ]
  %.761.us = phi ptr [ %.663.us, %.preheader.us ], [ %48, %47 ]
  %48 = getelementptr inbounds nuw i8, ptr %.761.us, i64 8
  store i64 %5, ptr %.761.us, align 8, !tbaa !57
  %49 = add nuw nsw i32 %.062.us, 1
  %exitcond96.not = icmp eq i32 %49, %.44.val
  br i1 %exitcond96.not, label %._crit_edge.us67, label %47, !llvm.loop !212

._crit_edge.us67:                                 ; preds = %47
  %50 = add nuw nsw i32 %.03564.us, 1
  %exitcond97.not = icmp eq i32 %50, %2
  br i1 %exitcond97.not, label %._crit_edge65, label %.preheader.us, !llvm.loop !213

._crit_edge65:                                    ; preds = %._crit_edge.us67, %.preheader1
  ret void
}